; Function Attrs: nounwind uwtable
define range(i32 -1, 1) i32 @H5O__shared_delete(ptr noundef %0, ptr noundef %1, ptr nocapture noundef readonly %2, ptr noundef %3) local_unnamed_addr #0 {
  %5 = tail call fastcc i32 @H5O__shared_link_adj(ptr noundef %0, ptr noundef %1, ptr noundef %2, ptr noundef %3, i32 noundef -1)
  %6 = icmp slt i32 %5, 0
  br i1 %6, label %7, label %11

7:                                                ; preds = %4
  %8 = load i64, ptr @H5E_OHDR_g, align 8
  %9 = load i64, ptr @H5E_LINKCOUNT_g, align 8
  %10 = tail call i32 (ptr, ptr, i32, i64, i64, ptr, ...) @H5E_printf_stack(ptr noundef nonnull @.str, ptr noundef nonnull @__func__.H5O__shared_delete, i32 noundef 511, i64 noundef %8, i64 noundef %9, ptr noundef nonnull @.str.4) #7
  br label %11

11:                                               ; preds = %4, %7
  %.0 = phi i32 [ -1, %7 ], [ 0, %4 ]
  ret i32 %.0
}